In archive music.a:

music.o:     file format elf32-littlearm


Disassembly of section .text:

00000000 <lv2_atom_forge_raw.constprop.3>:
   0:	e92d41f0 	push	{r4, r5, r6, r7, r8, lr}
   4:	e59f50b0 	ldr	r5, [pc, #176]	; bc <lv2_atom_forge_raw.constprop.3+0xbc>
   8:	e1a02000 	mov	r2, r0
   c:	e595300c 	ldr	r3, [r5, #12]
  10:	e1a06001 	mov	r6, r1
  14:	e3530000 	cmp	r3, #0
  18:	0a000019 	beq	84 <lv2_atom_forge_raw.constprop.3+0x84>
  1c:	e1a01002 	mov	r1, r2
  20:	e5950014 	ldr	r0, [r5, #20]
  24:	e1a02006 	mov	r2, r6
  28:	e12fff33 	blx	r3
  2c:	e1a07000 	mov	r7, r0
  30:	e5954018 	ldr	r4, [r5, #24]
  34:	e3540000 	cmp	r4, #0
  38:	0a00000b 	beq	6c <lv2_atom_forge_raw.constprop.3+0x6c>
  3c:	e59f8078 	ldr	r8, [pc, #120]	; bc <lv2_atom_forge_raw.constprop.3+0xbc>
  40:	e595c000 	ldr	ip, [r5]
  44:	e5941004 	ldr	r1, [r4, #4]
  48:	e35c0000 	cmp	ip, #0
  4c:	0a000008 	beq	74 <lv2_atom_forge_raw.constprop.3+0x74>
  50:	e1a00001 	mov	r0, r1
  54:	e590c000 	ldr	ip, [r0]
  58:	e5944000 	ldr	r4, [r4]
  5c:	e08cc006 	add	ip, ip, r6
  60:	e3540000 	cmp	r4, #0
  64:	e580c000 	str	ip, [r0]
  68:	1afffff4 	bne	40 <lv2_atom_forge_raw.constprop.3+0x40>
  6c:	e1a00007 	mov	r0, r7
  70:	e8bd81f0 	pop	{r4, r5, r6, r7, r8, pc}
  74:	e5982010 	ldr	r2, [r8, #16]
  78:	e5980014 	ldr	r0, [r8, #20]
  7c:	e12fff32 	blx	r2
  80:	eafffff3 	b	54 <lv2_atom_forge_raw.constprop.3+0x54>
  84:	e5951004 	ldr	r1, [r5, #4]
  88:	e5950008 	ldr	r0, [r5, #8]
  8c:	e086c001 	add	ip, r6, r1
  90:	e15c0000 	cmp	ip, r0
  94:	e5957000 	ldr	r7, [r5]
  98:	81a07003 	movhi	r7, r3
  9c:	8afffff2 	bhi	6c <lv2_atom_forge_raw.constprop.3+0x6c>
  a0:	e0877001 	add	r7, r7, r1
  a4:	e1a00007 	mov	r0, r7
  a8:	e1a01002 	mov	r1, r2
  ac:	e1a02006 	mov	r2, r6
  b0:	e585c004 	str	ip, [r5, #4]
  b4:	ebfffffe 	bl	0 <memcpy>
  b8:	eaffffdc 	b	30 <lv2_atom_forge_raw.constprop.3+0x30>
  bc:	00000000 	andeq	r0, r0, r0

000000c0 <music_init>:
  c0:	e92d4008 	push	{r3, lr}
  c4:	ebfffffe 	bl	0 <audio_init>
  c8:	ebfffffe 	bl	0 <lv2_init>
  cc:	e59f3004 	ldr	r3, [pc, #4]	; d8 <music_init+0x18>
  d0:	e5830000 	str	r0, [r3]
  d4:	e8bd8008 	pop	{r3, pc}
  d8:	00000000 	andeq	r0, r0, r0

000000dc <play_music>:
  dc:	e92d4ff0 	push	{r4, r5, r6, r7, r8, r9, sl, fp, lr}
  e0:	e59f32c4 	ldr	r3, [pc, #708]	; 3ac <play_music+0x2d0>
  e4:	e24dd02c 	sub	sp, sp, #44	; 0x2c
  e8:	e5933000 	ldr	r3, [r3]
  ec:	e3a01001 	mov	r1, #1
  f0:	e3a00000 	mov	r0, #0
  f4:	e5937014 	ldr	r7, [r3, #20]
  f8:	ebfffffe 	bl	0 <new_lv2_port>
  fc:	e3a01002 	mov	r1, #2
 100:	e1a09000 	mov	r9, r0
 104:	e3a00000 	mov	r0, #0
 108:	ebfffffe 	bl	0 <new_lv2_port>
 10c:	e3a01003 	mov	r1, #3
 110:	e58d0004 	str	r0, [sp, #4]
 114:	e3a00001 	mov	r0, #1
 118:	ebfffffe 	bl	0 <new_lv2_port>
 11c:	e5973000 	ldr	r3, [r7]
 120:	e1a08000 	mov	r8, r0
 124:	e9980006 	ldmib	r8, {r1, r2}
 128:	e5970004 	ldr	r0, [r7, #4]
 12c:	e5933008 	ldr	r3, [r3, #8]
 130:	e12fff33 	blx	r3
 134:	e9990006 	ldmib	r9, {r1, r2}
 138:	e5973000 	ldr	r3, [r7]
 13c:	e5970004 	ldr	r0, [r7, #4]
 140:	e5933008 	ldr	r3, [r3, #8]
 144:	e12fff33 	blx	r3
 148:	e59dc004 	ldr	ip, [sp, #4]
 14c:	e5973000 	ldr	r3, [r7]
 150:	e99c0006 	ldmib	ip, {r1, r2}
 154:	e5970004 	ldr	r0, [r7, #4]
 158:	e5933008 	ldr	r3, [r3, #8]
 15c:	e12fff33 	blx	r3
 160:	e59f5248 	ldr	r5, [pc, #584]	; 3b0 <play_music+0x2d4>
 164:	e5982008 	ldr	r2, [r8, #8]
 168:	e5953048 	ldr	r3, [r5, #72]	; 0x48
 16c:	e5852000 	str	r2, [r5]
 170:	e3a02c01 	mov	r2, #256	; 0x100
 174:	e3a04000 	mov	r4, #0
 178:	e5852008 	str	r2, [r5, #8]
 17c:	e28d0018 	add	r0, sp, #24
 180:	e3a02008 	mov	r2, #8
 184:	e3a01010 	mov	r1, #16
 188:	e5854004 	str	r4, [r5, #4]
 18c:	e5854010 	str	r4, [r5, #16]
 190:	e585400c 	str	r4, [r5, #12]
 194:	e5854014 	str	r4, [r5, #20]
 198:	e5854018 	str	r4, [r5, #24]
 19c:	e58d2018 	str	r2, [sp, #24]
 1a0:	e58d301c 	str	r3, [sp, #28]
 1a4:	e58d4020 	str	r4, [sp, #32]
 1a8:	e58d4024 	str	r4, [sp, #36]	; 0x24
 1ac:	ebffff93 	bl	0 <lv2_atom_forge_raw.constprop.3>
 1b0:	e2506000 	subs	r6, r0, #0
 1b4:	0a000005 	beq	1d0 <play_music+0xf4>
 1b8:	e28d0028 	add	r0, sp, #40	; 0x28
 1bc:	e3a02000 	mov	r2, #0
 1c0:	e3a03000 	mov	r3, #0
 1c4:	e16022f0 	strd	r2, [r0, #-32]!	; 0xffffffe0
 1c8:	e1a01004 	mov	r1, r4
 1cc:	ebffff8b 	bl	0 <lv2_atom_forge_raw.constprop.3>
 1d0:	e5953018 	ldr	r3, [r5, #24]
 1d4:	e28da010 	add	sl, sp, #16
 1d8:	e59f01d0 	ldr	r0, [pc, #464]	; 3b0 <play_music+0x2d4>
 1dc:	e58d6014 	str	r6, [sp, #20]
 1e0:	e58d3010 	str	r3, [sp, #16]
 1e4:	e585a018 	str	sl, [r5, #24]
 1e8:	e59f61c0 	ldr	r6, [pc, #448]	; 3b0 <play_music+0x2d4>
 1ec:	ebfffffe 	bl	0 <init_midi_source>
 1f0:	e3a04000 	mov	r4, #0
 1f4:	ea00000b 	b	228 <play_music+0x14c>
 1f8:	e58d4010 	str	r4, [sp, #16]
 1fc:	e58db014 	str	fp, [sp, #20]
 200:	e585a018 	str	sl, [r5, #24]
 204:	ebfffffe 	bl	0 <audio_buffer_free_space>
 208:	e3500080 	cmp	r0, #128	; 0x80
 20c:	dafffffc 	ble	204 <play_music+0x128>
 210:	e59d3004 	ldr	r3, [sp, #4]
 214:	e5990008 	ldr	r0, [r9, #8]
 218:	e5931008 	ldr	r1, [r3, #8]
 21c:	e599200c 	ldr	r2, [r9, #12]
 220:	ebfffffe 	bl	0 <audio_buffer_write>
 224:	e3a04000 	mov	r4, #0
 228:	ebfffffe 	bl	0 <forge_midi_input>
 22c:	e5953018 	ldr	r3, [r5, #24]
 230:	e153000a 	cmp	r3, sl
 234:	1a000057 	bne	398 <play_music+0x2bc>
 238:	e5973000 	ldr	r3, [r7]
 23c:	e59d2010 	ldr	r2, [sp, #16]
 240:	e3a01040 	mov	r1, #64	; 0x40
 244:	e5862018 	str	r2, [r6, #24]
 248:	e5933010 	ldr	r3, [r3, #16]
 24c:	e5970004 	ldr	r0, [r7, #4]
 250:	e12fff33 	blx	r3
 254:	e598200c 	ldr	r2, [r8, #12]
 258:	e598b008 	ldr	fp, [r8, #8]
 25c:	e352000f 	cmp	r2, #15
 260:	e5961048 	ldr	r1, [r6, #72]	; 0x48
 264:	e5862008 	str	r2, [r6, #8]
 268:	e5864004 	str	r4, [r6, #4]
 26c:	e5864010 	str	r4, [r6, #16]
 270:	e586400c 	str	r4, [r6, #12]
 274:	e5864014 	str	r4, [r6, #20]
 278:	e5864018 	str	r4, [r6, #24]
 27c:	e3a02008 	mov	r2, #8
 280:	e58d4020 	str	r4, [sp, #32]
 284:	e58d4024 	str	r4, [sp, #36]	; 0x24
 288:	93a04000 	movls	r4, #0
 28c:	e586b000 	str	fp, [r6]
 290:	e58d2018 	str	r2, [sp, #24]
 294:	e58d101c 	str	r1, [sp, #28]
 298:	91a0b004 	movls	fp, r4
 29c:	9affffd5 	bls	1f8 <play_music+0x11c>
 2a0:	e3a02010 	mov	r2, #16
 2a4:	e1a0000b 	mov	r0, fp
 2a8:	e28d1018 	add	r1, sp, #24
 2ac:	e5862004 	str	r2, [r6, #4]
 2b0:	ebfffffe 	bl	0 <memcpy>
 2b4:	e5964018 	ldr	r4, [r6, #24]
 2b8:	e3540000 	cmp	r4, #0
 2bc:	0a00000a 	beq	2ec <play_music+0x210>
 2c0:	e5953000 	ldr	r3, [r5]
 2c4:	e5941004 	ldr	r1, [r4, #4]
 2c8:	e3530000 	cmp	r3, #0
 2cc:	0a00001e 	beq	34c <play_music+0x270>
 2d0:	e1a00001 	mov	r0, r1
 2d4:	e5903000 	ldr	r3, [r0]
 2d8:	e5944000 	ldr	r4, [r4]
 2dc:	e2833010 	add	r3, r3, #16
 2e0:	e3540000 	cmp	r4, #0
 2e4:	e5803000 	str	r3, [r0]
 2e8:	1afffff4 	bne	2c0 <play_music+0x1e4>
 2ec:	e35b0000 	cmp	fp, #0
 2f0:	0a000013 	beq	344 <play_music+0x268>
 2f4:	e595c00c 	ldr	ip, [r5, #12]
 2f8:	e3a02000 	mov	r2, #0
 2fc:	e3a03000 	mov	r3, #0
 300:	e35c0000 	cmp	ip, #0
 304:	e1cd20f8 	strd	r2, [sp, #8]
 308:	0a000017 	beq	36c <play_music+0x290>
 30c:	e5960014 	ldr	r0, [r6, #20]
 310:	e28d1008 	add	r1, sp, #8
 314:	e3a02000 	mov	r2, #0
 318:	e12fff3c 	blx	ip
 31c:	e5954018 	ldr	r4, [r5, #24]
 320:	e3540000 	cmp	r4, #0
 324:	0affffb3 	beq	1f8 <play_music+0x11c>
 328:	e5953000 	ldr	r3, [r5]
 32c:	e5941004 	ldr	r1, [r4, #4]
 330:	e3530000 	cmp	r3, #0
 334:	0a000008 	beq	35c <play_music+0x280>
 338:	e5944000 	ldr	r4, [r4]
 33c:	e3540000 	cmp	r4, #0
 340:	1afffff8 	bne	328 <play_music+0x24c>
 344:	e5954018 	ldr	r4, [r5, #24]
 348:	eaffffaa 	b	1f8 <play_music+0x11c>
 34c:	e5963010 	ldr	r3, [r6, #16]
 350:	e5960014 	ldr	r0, [r6, #20]
 354:	e12fff33 	blx	r3
 358:	eaffffdd 	b	2d4 <play_music+0x1f8>
 35c:	e5963010 	ldr	r3, [r6, #16]
 360:	e5960014 	ldr	r0, [r6, #20]
 364:	e12fff33 	blx	r3
 368:	eafffff2 	b	338 <play_music+0x25c>
 36c:	e5962004 	ldr	r2, [r6, #4]
 370:	e5961008 	ldr	r1, [r6, #8]
 374:	e5960000 	ldr	r0, [r6]
 378:	e1520001 	cmp	r2, r1
 37c:	85964018 	ldrhi	r4, [r6, #24]
 380:	8affff9c 	bhi	1f8 <play_music+0x11c>
 384:	e0800002 	add	r0, r0, r2
 388:	e28d1008 	add	r1, sp, #8
 38c:	e1a0200c 	mov	r2, ip
 390:	ebfffffe 	bl	0 <memcpy>
 394:	eaffffe0 	b	31c <play_music+0x240>
 398:	e59f0014 	ldr	r0, [pc, #20]	; 3b4 <play_music+0x2d8>
 39c:	e3a010b3 	mov	r1, #179	; 0xb3
 3a0:	e59f2010 	ldr	r2, [pc, #16]	; 3b8 <play_music+0x2dc>
 3a4:	e59f3010 	ldr	r3, [pc, #16]	; 3bc <play_music+0x2e0>
 3a8:	ebfffffe 	bl	0 <__assert_func>
	...
 3bc:	00000060 	andeq	r0, r0, r0, rrx

Disassembly of section .text:

00000000 <new_midi_parser>:
   0:	e92d4070 	push	{r4, r5, r6, lr}
   4:	e1a05000 	mov	r5, r0
   8:	e3a00020 	mov	r0, #32
   c:	e1a06001 	mov	r6, r1
  10:	ebfffffe 	bl	0 <malloc>
  14:	e3560000 	cmp	r6, #0
  18:	13a03000 	movne	r3, #0
  1c:	03a03009 	moveq	r3, #9
  20:	15c0301e 	strbne	r3, [r0, #30]
  24:	15c0301c 	strbne	r3, [r0, #28]
  28:	13a03008 	movne	r3, #8
  2c:	15c0301d 	strbne	r3, [r0, #29]
  30:	05c0301d 	strbeq	r3, [r0, #29]
  34:	05c0301e 	strbeq	r3, [r0, #30]
  38:	05c0301c 	strbeq	r3, [r0, #28]
  3c:	e59f3034 	ldr	r3, [pc, #52]	; 78 <new_midi_parser+0x78>
  40:	e1a04000 	mov	r4, r0
  44:	e5805010 	str	r5, [r0, #16]
  48:	e5803008 	str	r3, [r0, #8]
  4c:	e3a00008 	mov	r0, #8
  50:	ebfffffe 	bl	0 <malloc>
  54:	e59f3020 	ldr	r3, [pc, #32]	; 7c <new_midi_parser+0x7c>
  58:	e5840014 	str	r0, [r4, #20]
  5c:	e5933004 	ldr	r3, [r3, #4]
  60:	e59f1018 	ldr	r1, [pc, #24]	; 80 <new_midi_parser+0x80>
  64:	e3a00000 	mov	r0, #0
  68:	e12fff33 	blx	r3
  6c:	e5840018 	str	r0, [r4, #24]
  70:	e1a00004 	mov	r0, r4
  74:	e8bd8070 	pop	{r4, r5, r6, pc}
  78:	0007a120 	andeq	sl, r7, r0, lsr #2
	...

00000084 <process_midi_byte>:
  84:	e92d45f0 	push	{r4, r5, r6, r7, r8, sl, lr}
  88:	e59f6794 	ldr	r6, [pc, #1940]	; 824 <process_midi_byte+0x7a0>
  8c:	e24dd024 	sub	sp, sp, #36	; 0x24
  90:	e5963000 	ldr	r3, [r6]
  94:	e1a07000 	mov	r7, r0
  98:	e3530000 	cmp	r3, #0
  9c:	0a00000c 	beq	d4 <process_midi_byte+0x50>
  a0:	e5962004 	ldr	r2, [r6, #4]
  a4:	e3520007 	cmp	r2, #7
  a8:	8a00001d 	bhi	124 <process_midi_byte+0xa0>
  ac:	e590c014 	ldr	ip, [r0, #20]
  b0:	e2820001 	add	r0, r2, #1
  b4:	e7cc1002 	strb	r1, [ip, r2]
  b8:	e5860004 	str	r0, [r6, #4]
  bc:	e2433001 	sub	r3, r3, #1
  c0:	e59f275c 	ldr	r2, [pc, #1884]	; 824 <process_midi_byte+0x7a0>
  c4:	e3530000 	cmp	r3, #0
  c8:	e5863000 	str	r3, [r6]
  cc:	05823004 	streq	r3, [r2, #4]
  d0:	1a000010 	bne	118 <process_midi_byte+0x94>
  d4:	e5d7301e 	ldrb	r3, [r7, #30]
  d8:	e353000c 	cmp	r3, #12
  dc:	979ff103 	ldrls	pc, [pc, r3, lsl #2]
  e0:	ea00006d 	b	29c <process_midi_byte+0x218>
  e4:	0000013c 	andeq	r0, r0, ip, lsr r1
  e8:	00000168 	andeq	r0, r0, r8, ror #2
  ec:	000001b4 			; <UNDEFINED> instruction: 0x000001b4
  f0:	00000228 	andeq	r0, r0, r8, lsr #4
  f4:	000001fc 	strdeq	r0, [r0], -ip
  f8:	00000254 	andeq	r0, r0, r4, asr r2
  fc:	000004fc 	strdeq	r0, [r0], -ip
 100:	00000548 	andeq	r0, r0, r8, asr #10
 104:	0000057c 	andeq	r0, r0, ip, ror r5
 108:	000005c0 	andeq	r0, r0, r0, asr #11
 10c:	000004d0 	ldrdeq	r0, [r0], -r0	; <UNPREDICTABLE>
 110:	00000560 	andeq	r0, r0, r0, ror #10
 114:	000002ac 	andeq	r0, r0, ip, lsr #5
 118:	e5920008 	ldr	r0, [r2, #8]
 11c:	e28dd024 	add	sp, sp, #36	; 0x24
 120:	e8bd85f0 	pop	{r4, r5, r6, r7, r8, sl, pc}
 124:	e59f06fc 	ldr	r0, [pc, #1788]	; 828 <process_midi_byte+0x7a4>
 128:	e58d1004 	str	r1, [sp, #4]
 12c:	ebfffffe 	bl	0 <printf>
 130:	e5963000 	ldr	r3, [r6]
 134:	e59d1004 	ldr	r1, [sp, #4]
 138:	eaffffdf 	b	bc <process_midi_byte+0x38>
 13c:	e5963004 	ldr	r3, [r6, #4]
 140:	e5972014 	ldr	r2, [r7, #20]
 144:	e3a0c001 	mov	ip, #1
 148:	e2830001 	add	r0, r3, #1
 14c:	e5c7c01e 	strb	ip, [r7, #30]
 150:	e7c21003 	strb	r1, [r2, r3]
 154:	e3a03003 	mov	r3, #3
 158:	e5860004 	str	r0, [r6, #4]
 15c:	e5863000 	str	r3, [r6]
 160:	e5960008 	ldr	r0, [r6, #8]
 164:	eaffffec 	b	11c <process_midi_byte+0x98>
 168:	e3a03000 	mov	r3, #0
 16c:	e5970014 	ldr	r0, [r7, #20]
 170:	e1a02003 	mov	r2, r3
 174:	e7d01003 	ldrb	r1, [r0, r3]
 178:	e2833001 	add	r3, r3, #1
 17c:	e3530004 	cmp	r3, #4
 180:	e1812402 	orr	r2, r1, r2, lsl #8
 184:	1afffffa 	bne	174 <process_midi_byte+0xf0>
 188:	e59f369c 	ldr	r3, [pc, #1692]	; 82c <process_midi_byte+0x7a8>
 18c:	e1520003 	cmp	r2, r3
 190:	0a000001 	beq	19c <process_midi_byte+0x118>
 194:	e59f0694 	ldr	r0, [pc, #1684]	; 830 <process_midi_byte+0x7ac>
 198:	ebfffffe 	bl	0 <printf>
 19c:	e3a03002 	mov	r3, #2
 1a0:	e5c7301e 	strb	r3, [r7, #30]
 1a4:	e3a03004 	mov	r3, #4
 1a8:	e5863000 	str	r3, [r6]
 1ac:	e5960008 	ldr	r0, [r6, #8]
 1b0:	eaffffd9 	b	11c <process_midi_byte+0x98>
 1b4:	e3a03000 	mov	r3, #0
 1b8:	e5970014 	ldr	r0, [r7, #20]
 1bc:	e1a02003 	mov	r2, r3
 1c0:	e7d01003 	ldrb	r1, [r0, r3]
 1c4:	e2833001 	add	r3, r3, #1
 1c8:	e3530004 	cmp	r3, #4
 1cc:	e1812402 	orr	r2, r1, r2, lsl #8
 1d0:	1afffffa 	bne	1c0 <process_midi_byte+0x13c>
 1d4:	e3520006 	cmp	r2, #6
 1d8:	0a000001 	beq	1e4 <process_midi_byte+0x160>
 1dc:	e59f0650 	ldr	r0, [pc, #1616]	; 834 <process_midi_byte+0x7b0>
 1e0:	ebfffffe 	bl	0 <printf>
 1e4:	e3a03003 	mov	r3, #3
 1e8:	e5c7301e 	strb	r3, [r7, #30]
 1ec:	e3a03002 	mov	r3, #2
 1f0:	e5863000 	str	r3, [r6]
 1f4:	e5960008 	ldr	r0, [r6, #8]
 1f8:	eaffffc7 	b	11c <process_midi_byte+0x98>
 1fc:	e5973014 	ldr	r3, [r7, #20]
 200:	e5960008 	ldr	r0, [r6, #8]
 204:	e5d32000 	ldrb	r2, [r3]
 208:	e5d33001 	ldrb	r3, [r3, #1]
 20c:	e1833402 	orr	r3, r3, r2, lsl #8
 210:	e5873000 	str	r3, [r7]
 214:	e3a03005 	mov	r3, #5
 218:	e5c7301e 	strb	r3, [r7, #30]
 21c:	e3a03002 	mov	r3, #2
 220:	e5863000 	str	r3, [r6]
 224:	eaffffbc 	b	11c <process_midi_byte+0x98>
 228:	e5973014 	ldr	r3, [r7, #20]
 22c:	e5d32000 	ldrb	r2, [r3]
 230:	e5d33001 	ldrb	r3, [r3, #1]
 234:	e1933402 	orrs	r3, r3, r2, lsl #8
 238:	1a00011f 	bne	6bc <process_midi_byte+0x638>
 23c:	e3a03004 	mov	r3, #4
 240:	e5c7301e 	strb	r3, [r7, #30]
 244:	e3a03002 	mov	r3, #2
 248:	e5863000 	str	r3, [r6]
 24c:	e5960008 	ldr	r0, [r6, #8]
 250:	eaffffb1 	b	11c <process_midi_byte+0x98>
 254:	edd76a02 	vldr	s13, [r7, #8]
 258:	e5973014 	ldr	r3, [r7, #20]
 25c:	eeb87a66 	vcvt.f32.u32	s14, s13
 260:	e5d32000 	ldrb	r2, [r3]
 264:	e5d33001 	ldrb	r3, [r3, #1]
 268:	e5960008 	ldr	r0, [r6, #8]
 26c:	e1833402 	orr	r3, r3, r2, lsl #8
 270:	ee063a90 	vmov	s13, r3
 274:	eef87a66 	vcvt.f32.u32	s15, s13
 278:	eec77a27 	vdiv.f32	s15, s14, s15
 27c:	eefc7ae7 	vcvt.u32.f32	s15, s15
 280:	e5873004 	str	r3, [r7, #4]
 284:	e3a03006 	mov	r3, #6
 288:	e5c7301e 	strb	r3, [r7, #30]
 28c:	e3a03004 	mov	r3, #4
 290:	edc77a03 	vstr	s15, [r7, #12]
 294:	e5863000 	str	r3, [r6]
 298:	eaffff9f 	b	11c <process_midi_byte+0x98>
 29c:	e59f0594 	ldr	r0, [pc, #1428]	; 838 <process_midi_byte+0x7b4>
 2a0:	ebfffffe 	bl	0 <printf>
 2a4:	e5960008 	ldr	r0, [r6, #8]
 2a8:	eaffff9b 	b	11c <process_midi_byte+0x98>
 2ac:	e5973014 	ldr	r3, [r7, #20]
 2b0:	e5d32000 	ldrb	r2, [r3]
 2b4:	e20210f0 	and	r1, r2, #240	; 0xf0
 2b8:	e3510090 	cmp	r1, #144	; 0x90
 2bc:	0a000101 	beq	6c8 <process_midi_byte+0x644>
 2c0:	e5978010 	ldr	r8, [r7, #16]
 2c4:	e3a02001 	mov	r2, #1
 2c8:	e598c00c 	ldr	ip, [r8, #12]
 2cc:	e3a03000 	mov	r3, #0
 2d0:	e35c0000 	cmp	ip, #0
 2d4:	e1cd20f8 	strd	r2, [sp, #8]
 2d8:	0a0000da 	beq	648 <process_midi_byte+0x5c4>
 2dc:	e5980014 	ldr	r0, [r8, #20]
 2e0:	e28d1008 	add	r1, sp, #8
 2e4:	e3a02008 	mov	r2, #8
 2e8:	e12fff3c 	blx	ip
 2ec:	e1a05000 	mov	r5, r0
 2f0:	e5984018 	ldr	r4, [r8, #24]
 2f4:	e3540000 	cmp	r4, #0
 2f8:	0a00000a 	beq	328 <process_midi_byte+0x2a4>
 2fc:	e5983000 	ldr	r3, [r8]
 300:	e5941004 	ldr	r1, [r4, #4]
 304:	e3530000 	cmp	r3, #0
 308:	0a0000fd 	beq	704 <process_midi_byte+0x680>
 30c:	e1a00001 	mov	r0, r1
 310:	e5903000 	ldr	r3, [r0]
 314:	e5944000 	ldr	r4, [r4]
 318:	e2833008 	add	r3, r3, #8
 31c:	e3540000 	cmp	r4, #0
 320:	e5803000 	str	r3, [r0]
 324:	1afffff4 	bne	2fc <process_midi_byte+0x278>
 328:	e3550000 	cmp	r5, #0
 32c:	0a000013 	beq	380 <process_midi_byte+0x2fc>
 330:	e598300c 	ldr	r3, [r8, #12]
 334:	e3a04000 	mov	r4, #0
 338:	e3a05000 	mov	r5, #0
 33c:	e3530000 	cmp	r3, #0
 340:	e1cd41f0 	strd	r4, [sp, #16]
 344:	0a000106 	beq	764 <process_midi_byte+0x6e0>
 348:	e5980014 	ldr	r0, [r8, #20]
 34c:	e28d1010 	add	r1, sp, #16
 350:	e3a02000 	mov	r2, #0
 354:	e12fff33 	blx	r3
 358:	e5984018 	ldr	r4, [r8, #24]
 35c:	e3540000 	cmp	r4, #0
 360:	0a000006 	beq	380 <process_midi_byte+0x2fc>
 364:	e5983000 	ldr	r3, [r8]
 368:	e5941004 	ldr	r1, [r4, #4]
 36c:	e3530000 	cmp	r3, #0
 370:	0a0000e7 	beq	714 <process_midi_byte+0x690>
 374:	e5944000 	ldr	r4, [r4]
 378:	e3540000 	cmp	r4, #0
 37c:	1afffff8 	bne	364 <process_midi_byte+0x2e0>
 380:	e5978010 	ldr	r8, [r7, #16]
 384:	e596a014 	ldr	sl, [r6, #20]
 388:	e598300c 	ldr	r3, [r8, #12]
 38c:	e5972018 	ldr	r2, [r7, #24]
 390:	e3530000 	cmp	r3, #0
 394:	e58da018 	str	sl, [sp, #24]
 398:	e58d201c 	str	r2, [sp, #28]
 39c:	0a0000b3 	beq	670 <process_midi_byte+0x5ec>
 3a0:	e5980014 	ldr	r0, [r8, #20]
 3a4:	e28d1018 	add	r1, sp, #24
 3a8:	e3a02008 	mov	r2, #8
 3ac:	e12fff33 	blx	r3
 3b0:	e5984018 	ldr	r4, [r8, #24]
 3b4:	e3540000 	cmp	r4, #0
 3b8:	0a00000a 	beq	3e8 <process_midi_byte+0x364>
 3bc:	e5983000 	ldr	r3, [r8]
 3c0:	e5941004 	ldr	r1, [r4, #4]
 3c4:	e3530000 	cmp	r3, #0
 3c8:	0a0000c9 	beq	6f4 <process_midi_byte+0x670>
 3cc:	e1a00001 	mov	r0, r1
 3d0:	e5903000 	ldr	r3, [r0]
 3d4:	e5944000 	ldr	r4, [r4]
 3d8:	e2833008 	add	r3, r3, #8
 3dc:	e3540000 	cmp	r4, #0
 3e0:	e5803000 	str	r3, [r0]
 3e4:	1afffff4 	bne	3bc <process_midi_byte+0x338>
 3e8:	e5978010 	ldr	r8, [r7, #16]
 3ec:	e596a014 	ldr	sl, [r6, #20]
 3f0:	e598300c 	ldr	r3, [r8, #12]
 3f4:	e5971014 	ldr	r1, [r7, #20]
 3f8:	e3530000 	cmp	r3, #0
 3fc:	0a0000a2 	beq	68c <process_midi_byte+0x608>
 400:	e5980014 	ldr	r0, [r8, #20]
 404:	e1a0200a 	mov	r2, sl
 408:	e12fff33 	blx	r3
 40c:	e1a05000 	mov	r5, r0
 410:	e5984018 	ldr	r4, [r8, #24]
 414:	e3540000 	cmp	r4, #0
 418:	0a00000a 	beq	448 <process_midi_byte+0x3c4>
 41c:	e5983000 	ldr	r3, [r8]
 420:	e5941004 	ldr	r1, [r4, #4]
 424:	e3530000 	cmp	r3, #0
 428:	0a0000ad 	beq	6e4 <process_midi_byte+0x660>
 42c:	e1a00001 	mov	r0, r1
 430:	e5903000 	ldr	r3, [r0]
 434:	e5944000 	ldr	r4, [r4]
 438:	e083300a 	add	r3, r3, sl
 43c:	e3540000 	cmp	r4, #0
 440:	e5803000 	str	r3, [r0]
 444:	1afffff4 	bne	41c <process_midi_byte+0x398>
 448:	e3550000 	cmp	r5, #0
 44c:	0a000094 	beq	6a4 <process_midi_byte+0x620>
 450:	e598300c 	ldr	r3, [r8, #12]
 454:	e28a2007 	add	r2, sl, #7
 458:	e3c22007 	bic	r2, r2, #7
 45c:	e3a04000 	mov	r4, #0
 460:	e3a05000 	mov	r5, #0
 464:	e3530000 	cmp	r3, #0
 468:	e1cd41f0 	strd	r4, [sp, #16]
 46c:	e06aa002 	rsb	sl, sl, r2
 470:	0a0000af 	beq	734 <process_midi_byte+0x6b0>
 474:	e5980014 	ldr	r0, [r8, #20]
 478:	e28d1010 	add	r1, sp, #16
 47c:	e1a0200a 	mov	r2, sl
 480:	e12fff33 	blx	r3
 484:	e5984018 	ldr	r4, [r8, #24]
 488:	e3540000 	cmp	r4, #0
 48c:	1a000007 	bne	4b0 <process_midi_byte+0x42c>
 490:	ea000083 	b	6a4 <process_midi_byte+0x620>
 494:	e1a00001 	mov	r0, r1
 498:	e5903000 	ldr	r3, [r0]
 49c:	e5944000 	ldr	r4, [r4]
 4a0:	e083300a 	add	r3, r3, sl
 4a4:	e3540000 	cmp	r4, #0
 4a8:	e5803000 	str	r3, [r0]
 4ac:	0a00007c 	beq	6a4 <process_midi_byte+0x620>
 4b0:	e5983000 	ldr	r3, [r8]
 4b4:	e5941004 	ldr	r1, [r4, #4]
 4b8:	e3530000 	cmp	r3, #0
 4bc:	1afffff4 	bne	494 <process_midi_byte+0x410>
 4c0:	e5983010 	ldr	r3, [r8, #16]
 4c4:	e5980014 	ldr	r0, [r8, #20]
 4c8:	e12fff33 	blx	r3
 4cc:	eafffff1 	b	498 <process_midi_byte+0x414>
 4d0:	e5962014 	ldr	r2, [r6, #20]
 4d4:	e201307f 	and	r3, r1, #127	; 0x7f
 4d8:	e1832382 	orr	r2, r3, r2, lsl #7
 4dc:	e59f3340 	ldr	r3, [pc, #832]	; 824 <process_midi_byte+0x7a0>
 4e0:	e3110080 	tst	r1, #128	; 0x80
 4e4:	e5862014 	str	r2, [r6, #20]
 4e8:	05832000 	streq	r2, [r3]
 4ec:	03a0200c 	moveq	r2, #12
 4f0:	05c7201e 	strbeq	r2, [r7, #30]
 4f4:	e5930008 	ldr	r0, [r3, #8]
 4f8:	eaffff07 	b	11c <process_midi_byte+0x98>
 4fc:	e3a03000 	mov	r3, #0
 500:	e5970014 	ldr	r0, [r7, #20]
 504:	e1a02003 	mov	r2, r3
 508:	e7d01003 	ldrb	r1, [r0, r3]
 50c:	e2833001 	add	r3, r3, #1
 510:	e3530004 	cmp	r3, #4
 514:	e1812402 	orr	r2, r1, r2, lsl #8
 518:	1afffffa 	bne	508 <process_midi_byte+0x484>
 51c:	e59f3318 	ldr	r3, [pc, #792]	; 83c <process_midi_byte+0x7b8>
 520:	e1520003 	cmp	r2, r3
 524:	0a000001 	beq	530 <process_midi_byte+0x4ac>
 528:	e59f0310 	ldr	r0, [pc, #784]	; 840 <process_midi_byte+0x7bc>
 52c:	ebfffffe 	bl	0 <printf>
 530:	e3a03007 	mov	r3, #7
 534:	e5c7301e 	strb	r3, [r7, #30]
 538:	e3a03004 	mov	r3, #4
 53c:	e5863000 	str	r3, [r6]
 540:	e5960008 	ldr	r0, [r6, #8]
 544:	eafffef4 	b	11c <process_midi_byte+0x98>
 548:	e3a03008 	mov	r3, #8
 54c:	e5c7301e 	strb	r3, [r7, #30]
 550:	e3a03000 	mov	r3, #0
 554:	e586300c 	str	r3, [r6, #12]
 558:	e5960008 	ldr	r0, [r6, #8]
 55c:	eafffeee 	b	11c <process_midi_byte+0x98>
 560:	e5c61010 	strb	r1, [r6, #16]
 564:	e3a03000 	mov	r3, #0
 568:	e5863014 	str	r3, [r6, #20]
 56c:	e3a0300a 	mov	r3, #10
 570:	e5c7301e 	strb	r3, [r7, #30]
 574:	e5960008 	ldr	r0, [r6, #8]
 578:	eafffee7 	b	11c <process_midi_byte+0x98>
 57c:	e596200c 	ldr	r2, [r6, #12]
 580:	e201307f 	and	r3, r1, #127	; 0x7f
 584:	e1832382 	orr	r2, r3, r2, lsl #7
 588:	e3110080 	tst	r1, #128	; 0x80
 58c:	e59f3290 	ldr	r3, [pc, #656]	; 824 <process_midi_byte+0x7a0>
 590:	e586200c 	str	r2, [r6, #12]
 594:	1affffd6 	bne	4f4 <process_midi_byte+0x470>
 598:	e597000c 	ldr	r0, [r7, #12]
 59c:	e59f12a0 	ldr	r1, [pc, #672]	; 844 <process_midi_byte+0x7c0>
 5a0:	e0000290 	mul	r0, r0, r2
 5a4:	e0802091 	umull	r2, r0, r1, r0
 5a8:	e5931008 	ldr	r1, [r3, #8]
 5ac:	e0810320 	add	r0, r1, r0, lsr #6
 5b0:	e5830008 	str	r0, [r3, #8]
 5b4:	e3a03009 	mov	r3, #9
 5b8:	e5c7301e 	strb	r3, [r7, #30]
 5bc:	eafffed6 	b	11c <process_midi_byte+0x98>
 5c0:	e35100fe 	cmp	r1, #254	; 0xfe
 5c4:	0a00003a 	beq	6b4 <process_midi_byte+0x630>
 5c8:	e35100ff 	cmp	r1, #255	; 0xff
 5cc:	0a000054 	beq	724 <process_midi_byte+0x6a0>
 5d0:	e35100f0 	cmp	r1, #240	; 0xf0
 5d4:	03e0300f 	mvneq	r3, #15
 5d8:	05c63010 	strbeq	r3, [r6, #16]
 5dc:	0affffe0 	beq	564 <process_midi_byte+0x4e0>
 5e0:	e35100f7 	cmp	r1, #247	; 0xf7
 5e4:	03e03008 	mvneq	r3, #8
 5e8:	05c63010 	strbeq	r3, [r6, #16]
 5ec:	0affffdc 	beq	564 <process_midi_byte+0x4e0>
 5f0:	e35100f0 	cmp	r1, #240	; 0xf0
 5f4:	8a000077 	bhi	7d8 <process_midi_byte+0x754>
 5f8:	e3110080 	tst	r1, #128	; 0x80
 5fc:	1a000079 	bne	7e8 <process_midi_byte+0x764>
 600:	e5d63010 	ldrb	r3, [r6, #16]
 604:	e5970014 	ldr	r0, [r7, #20]
 608:	e2032070 	and	r2, r3, #112	; 0x70
 60c:	e5c03000 	strb	r3, [r0]
 610:	e59f3230 	ldr	r3, [pc, #560]	; 848 <process_midi_byte+0x7c4>
 614:	e5970014 	ldr	r0, [r7, #20]
 618:	e7d33242 	ldrb	r3, [r3, r2, asr #4]
 61c:	e5c01001 	strb	r1, [r0, #1]
 620:	e2432001 	sub	r2, r3, #1
 624:	e2833001 	add	r3, r3, #1
 628:	e3a01002 	mov	r1, #2
 62c:	e5863014 	str	r3, [r6, #20]
 630:	e3a0300c 	mov	r3, #12
 634:	e5861004 	str	r1, [r6, #4]
 638:	e5862000 	str	r2, [r6]
 63c:	e5c7301e 	strb	r3, [r7, #30]
 640:	e5960008 	ldr	r0, [r6, #8]
 644:	eafffeb4 	b	11c <process_midi_byte+0x98>
 648:	e5982004 	ldr	r2, [r8, #4]
 64c:	e5981008 	ldr	r1, [r8, #8]
 650:	e2823008 	add	r3, r2, #8
 654:	e1530001 	cmp	r3, r1
 658:	e5985000 	ldr	r5, [r8]
 65c:	9a000056 	bls	7bc <process_midi_byte+0x738>
 660:	e596a014 	ldr	sl, [r6, #20]
 664:	e5973018 	ldr	r3, [r7, #24]
 668:	e58da018 	str	sl, [sp, #24]
 66c:	e58d301c 	str	r3, [sp, #28]
 670:	e5983004 	ldr	r3, [r8, #4]
 674:	e5981008 	ldr	r1, [r8, #8]
 678:	e2832008 	add	r2, r3, #8
 67c:	e1520001 	cmp	r2, r1
 680:	e5980000 	ldr	r0, [r8]
 684:	9a000046 	bls	7a4 <process_midi_byte+0x720>
 688:	e5971014 	ldr	r1, [r7, #20]
 68c:	e5982004 	ldr	r2, [r8, #4]
 690:	e5980008 	ldr	r0, [r8, #8]
 694:	e08a3002 	add	r3, sl, r2
 698:	e1530000 	cmp	r3, r0
 69c:	e5985000 	ldr	r5, [r8]
 6a0:	9a000039 	bls	78c <process_midi_byte+0x708>
 6a4:	e5d7301d 	ldrb	r3, [r7, #29]
 6a8:	e3a02000 	mov	r2, #0
 6ac:	e586200c 	str	r2, [r6, #12]
 6b0:	e5c7301e 	strb	r3, [r7, #30]
 6b4:	e5960008 	ldr	r0, [r6, #8]
 6b8:	eafffe97 	b	11c <process_midi_byte+0x98>
 6bc:	e59f0188 	ldr	r0, [pc, #392]	; 84c <process_midi_byte+0x7c8>
 6c0:	ebfffffe 	bl	0 <printf>
 6c4:	eafffedc 	b	23c <process_midi_byte+0x1b8>
 6c8:	e5d31002 	ldrb	r1, [r3, #2]
 6cc:	e3510000 	cmp	r1, #0
 6d0:	0202200f 	andeq	r2, r2, #15
 6d4:	01e02c82 	mvneq	r2, r2, lsl #25
 6d8:	01e02ca2 	mvneq	r2, r2, lsr #25
 6dc:	05c32000 	strbeq	r2, [r3]
 6e0:	eafffef6 	b	2c0 <process_midi_byte+0x23c>
 6e4:	e5983010 	ldr	r3, [r8, #16]
 6e8:	e5980014 	ldr	r0, [r8, #20]
 6ec:	e12fff33 	blx	r3
 6f0:	eaffff4e 	b	430 <process_midi_byte+0x3ac>
 6f4:	e5983010 	ldr	r3, [r8, #16]
 6f8:	e5980014 	ldr	r0, [r8, #20]
 6fc:	e12fff33 	blx	r3
 700:	eaffff32 	b	3d0 <process_midi_byte+0x34c>
 704:	e5983010 	ldr	r3, [r8, #16]
 708:	e5980014 	ldr	r0, [r8, #20]
 70c:	e12fff33 	blx	r3
 710:	eafffefe 	b	310 <process_midi_byte+0x28c>
 714:	e5983010 	ldr	r3, [r8, #16]
 718:	e5980014 	ldr	r0, [r8, #20]
 71c:	e12fff33 	blx	r3
 720:	eaffff13 	b	374 <process_midi_byte+0x2f0>
 724:	e3a0300b 	mov	r3, #11
 728:	e5c7301e 	strb	r3, [r7, #30]
 72c:	e5960008 	ldr	r0, [r6, #8]
 730:	eafffe79 	b	11c <process_midi_byte+0x98>
 734:	e5983004 	ldr	r3, [r8, #4]
 738:	e5981008 	ldr	r1, [r8, #8]
 73c:	e08a2003 	add	r2, sl, r3
 740:	e1520001 	cmp	r2, r1
 744:	e5980000 	ldr	r0, [r8]
 748:	8affffd5 	bhi	6a4 <process_midi_byte+0x620>
 74c:	e5882004 	str	r2, [r8, #4]
 750:	e0800003 	add	r0, r0, r3
 754:	e28d1010 	add	r1, sp, #16
 758:	e1a0200a 	mov	r2, sl
 75c:	ebfffffe 	bl	0 <memcpy>
 760:	eaffff47 	b	484 <process_midi_byte+0x400>
 764:	e5982004 	ldr	r2, [r8, #4]
 768:	e5981008 	ldr	r1, [r8, #8]
 76c:	e5980000 	ldr	r0, [r8]
 770:	e1520001 	cmp	r2, r1
 774:	8affff01 	bhi	380 <process_midi_byte+0x2fc>
 778:	e0800002 	add	r0, r0, r2
 77c:	e28d1010 	add	r1, sp, #16
 780:	e1a02003 	mov	r2, r3
 784:	ebfffffe 	bl	0 <memcpy>
 788:	eafffef2 	b	358 <process_midi_byte+0x2d4>
 78c:	e0855002 	add	r5, r5, r2
 790:	e5883004 	str	r3, [r8, #4]
 794:	e1a00005 	mov	r0, r5
 798:	e1a0200a 	mov	r2, sl
 79c:	ebfffffe 	bl	0 <memcpy>
 7a0:	eaffff1a 	b	410 <process_midi_byte+0x38c>
 7a4:	e5882004 	str	r2, [r8, #4]
 7a8:	e0800003 	add	r0, r0, r3
 7ac:	e28d1018 	add	r1, sp, #24
 7b0:	e3a02008 	mov	r2, #8
 7b4:	ebfffffe 	bl	0 <memcpy>
 7b8:	eafffefc 	b	3b0 <process_midi_byte+0x32c>
 7bc:	e0855002 	add	r5, r5, r2
 7c0:	e5883004 	str	r3, [r8, #4]
 7c4:	e1a00005 	mov	r0, r5
 7c8:	e28d1008 	add	r1, sp, #8
 7cc:	e3a02008 	mov	r2, #8
 7d0:	ebfffffe 	bl	0 <memcpy>
 7d4:	eafffec5 	b	2f0 <process_midi_byte+0x26c>
 7d8:	e59f0070 	ldr	r0, [pc, #112]	; 850 <process_midi_byte+0x7cc>
 7dc:	ebfffffe 	bl	0 <printf>
 7e0:	e5960008 	ldr	r0, [r6, #8]
 7e4:	eafffe4c 	b	11c <process_midi_byte+0x98>
 7e8:	e59f3058 	ldr	r3, [pc, #88]	; 848 <process_midi_byte+0x7c4>
 7ec:	e2012070 	and	r2, r1, #112	; 0x70
 7f0:	e7d33242 	ldrb	r3, [r3, r2, asr #4]
 7f4:	e5970014 	ldr	r0, [r7, #20]
 7f8:	e2832001 	add	r2, r3, #1
 7fc:	e5c01000 	strb	r1, [r0]
 800:	e5c61010 	strb	r1, [r6, #16]
 804:	e5863000 	str	r3, [r6]
 808:	e3a01001 	mov	r1, #1
 80c:	e3a0300c 	mov	r3, #12
 810:	e5861004 	str	r1, [r6, #4]
 814:	e5862014 	str	r2, [r6, #20]
 818:	e5c7301e 	strb	r3, [r7, #30]
 81c:	e5960008 	ldr	r0, [r6, #8]
 820:	eafffe3d 	b	11c <process_midi_byte+0x98>
 824:	00000000 	andeq	r0, r0, r0
 828:	00000028 	andeq	r0, r0, r8, lsr #32
 82c:	4d546864 	ldclmi	8, cr6, [r4, #-400]	; 0xfffffe70
 830:	00000048 	andeq	r0, r0, r8, asr #32
 834:	0000005c 	andeq	r0, r0, ip, asr r0
 838:	0000010c 	andeq	r0, r0, ip, lsl #2
 83c:	4d54726b 	lfmmi	f7, 2, [r4, #-428]	; 0xfffffe54
 840:	000000c8 	andeq	r0, r0, r8, asr #1
 844:	10624dd3 	ldrdne	r4, [r2], #-211	; 0xffffff2d	; <UNPREDICTABLE>
 848:	00000104 	andeq	r0, r0, r4, lsl #2
 84c:	00000078 	andeq	r0, r0, r8, ror r0
 850:	000000dc 	ldrdeq	r0, [r0], -ip

00000854 <init_midi_source>:
 854:	e92d4038 	push	{r3, r4, r5, lr}
 858:	e3a01001 	mov	r1, #1
 85c:	e1a05000 	mov	r5, r0
 860:	ebfffffe 	bl	0 <new_midi_parser>
 864:	e59f4018 	ldr	r4, [pc, #24]	; 884 <init_midi_source+0x30>
 868:	e3a01000 	mov	r1, #0
 86c:	e5840018 	str	r0, [r4, #24]
 870:	e1a00005 	mov	r0, r5
 874:	ebfffffe 	bl	0 <new_midi_parser>
 878:	e584001c 	str	r0, [r4, #28]
 87c:	e8bd4038 	pop	{r3, r4, r5, lr}
 880:	eafffffe 	b	0 <reset_timer_ms>
 884:	00000000 	andeq	r0, r0, r0

00000888 <forge_midi_input>:
 888:	e92d4070 	push	{r4, r5, r6, lr}
 88c:	e59f5038 	ldr	r5, [pc, #56]	; 8cc <forge_midi_input+0x44>
 890:	e59f6038 	ldr	r6, [pc, #56]	; 8d0 <forge_midi_input+0x48>
 894:	e1a04005 	mov	r4, r5
 898:	ea000006 	b	8b8 <forge_midi_input+0x30>
 89c:	e5943020 	ldr	r3, [r4, #32]
 8a0:	e5940018 	ldr	r0, [r4, #24]
 8a4:	e7d31006 	ldrb	r1, [r3, r6]
 8a8:	e2833001 	add	r3, r3, #1
 8ac:	e5843020 	str	r3, [r4, #32]
 8b0:	ebfffffe 	bl	84 <process_midi_byte>
 8b4:	e5840024 	str	r0, [r4, #36]	; 0x24
 8b8:	ebfffffe 	bl	0 <get_timer_ms>
 8bc:	e5953024 	ldr	r3, [r5, #36]	; 0x24
 8c0:	e1500003 	cmp	r0, r3
 8c4:	8afffff4 	bhi	89c <forge_midi_input+0x14>
 8c8:	e8bd8070 	pop	{r4, r5, r6, pc}
	...

Disassembly of section .text:

00000000 <urid_unmap_func>:
   0:	e59f3028 	ldr	r3, [pc, #40]	; 30 <urid_unmap_func+0x30>
   4:	e5930000 	ldr	r0, [r3]
   8:	ea000002 	b	18 <urid_unmap_func+0x18>
   c:	e5900008 	ldr	r0, [r0, #8]
  10:	e3500000 	cmp	r0, #0
  14:	0a000004 	beq	2c <urid_unmap_func+0x2c>
  18:	e5903004 	ldr	r3, [r0, #4]
  1c:	e1530001 	cmp	r3, r1
  20:	1afffff9 	bne	c <urid_unmap_func+0xc>
  24:	e5900000 	ldr	r0, [r0]
  28:	e12fff1e 	bx	lr
  2c:	e12fff1e 	bx	lr
  30:	00000000 	andeq	r0, r0, r0

00000034 <urid_map_func>:
  34:	e92d4070 	push	{r4, r5, r6, lr}
  38:	e59f4094 	ldr	r4, [pc, #148]	; d4 <urid_map_func+0xa0>
  3c:	e1a06001 	mov	r6, r1
  40:	e5945000 	ldr	r5, [r4]
  44:	e3550000 	cmp	r5, #0
  48:	0a000018 	beq	b0 <urid_map_func+0x7c>
  4c:	e5950000 	ldr	r0, [r5]
  50:	ea000001 	b	5c <urid_map_func+0x28>
  54:	e5940000 	ldr	r0, [r4]
  58:	e1a05004 	mov	r5, r4
  5c:	e1a01006 	mov	r1, r6
  60:	ebfffffe 	bl	0 <strcmp>
  64:	e3500000 	cmp	r0, #0
  68:	0a00000e 	beq	a8 <urid_map_func+0x74>
  6c:	e5954008 	ldr	r4, [r5, #8]
  70:	e3540000 	cmp	r4, #0
  74:	1afffff6 	bne	54 <urid_map_func+0x20>
  78:	e3a0000c 	mov	r0, #12
  7c:	ebfffffe 	bl	0 <malloc>
  80:	e59f2050 	ldr	r2, [pc, #80]	; d8 <urid_map_func+0xa4>
  84:	e1a03000 	mov	r3, r0
  88:	e5804008 	str	r4, [r0, #8]
  8c:	e5920000 	ldr	r0, [r2]
  90:	e5836000 	str	r6, [r3]
  94:	e2801001 	add	r1, r0, #1
  98:	e5830004 	str	r0, [r3, #4]
  9c:	e5821000 	str	r1, [r2]
  a0:	e5853008 	str	r3, [r5, #8]
  a4:	e8bd8070 	pop	{r4, r5, r6, pc}
  a8:	e5950004 	ldr	r0, [r5, #4]
  ac:	e8bd8070 	pop	{r4, r5, r6, pc}
  b0:	e3a0000c 	mov	r0, #12
  b4:	ebfffffe 	bl	0 <malloc>
  b8:	e1a05000 	mov	r5, r0
  bc:	e59f0018 	ldr	r0, [pc, #24]	; dc <urid_map_func+0xa8>
  c0:	e3a03000 	mov	r3, #0
  c4:	e5845000 	str	r5, [r4]
  c8:	e8850009 	stm	r5, {r0, r3}
  cc:	e5853008 	str	r3, [r5, #8]
  d0:	eaffffe1 	b	5c <urid_map_func+0x28>
	...

000000e0 <lv2_init>:
  e0:	e92d4ff8 	push	{r3, r4, r5, r6, r7, r8, r9, sl, fp, lr}
  e4:	e1a08000 	mov	r8, r0
  e8:	e3a00018 	mov	r0, #24
  ec:	ebfffffe 	bl	0 <malloc>
  f0:	e59f4234 	ldr	r4, [pc, #564]	; 32c <lv2_init+0x24c>
  f4:	e59f5234 	ldr	r5, [pc, #564]	; 330 <lv2_init+0x250>
  f8:	e2842004 	add	r2, r4, #4
  fc:	e3a07000 	mov	r7, #0
 100:	e284300c 	add	r3, r4, #12
 104:	e59fa228 	ldr	sl, [pc, #552]	; 334 <lv2_init+0x254>
 108:	e5802008 	str	r2, [r0, #8]
 10c:	e5808000 	str	r8, [r0]
 110:	e580300c 	str	r3, [r0, #12]
 114:	e5807010 	str	r7, [r0, #16]
 118:	e59f1218 	ldr	r1, [pc, #536]	; 338 <lv2_init+0x258>
 11c:	e5943018 	ldr	r3, [r4, #24]
 120:	e1a06000 	mov	r6, r0
 124:	e5857000 	str	r7, [r5]
 128:	e5857008 	str	r7, [r5, #8]
 12c:	e5857004 	str	r7, [r5, #4]
 130:	e5857010 	str	r7, [r5, #16]
 134:	e585700c 	str	r7, [r5, #12]
 138:	e5857014 	str	r7, [r5, #20]
 13c:	e5857018 	str	r7, [r5, #24]
 140:	e5940014 	ldr	r0, [r4, #20]
 144:	e58a7000 	str	r7, [sl]
 148:	e12fff33 	blx	r3
 14c:	e59f11e8 	ldr	r1, [pc, #488]	; 33c <lv2_init+0x25c>
 150:	e585001c 	str	r0, [r5, #28]
 154:	e5943018 	ldr	r3, [r4, #24]
 158:	e5940014 	ldr	r0, [r4, #20]
 15c:	e12fff33 	blx	r3
 160:	e59f11d8 	ldr	r1, [pc, #472]	; 340 <lv2_init+0x260>
 164:	e5850020 	str	r0, [r5, #32]
 168:	e5943018 	ldr	r3, [r4, #24]
 16c:	e5940014 	ldr	r0, [r4, #20]
 170:	e12fff33 	blx	r3
 174:	e59f11c8 	ldr	r1, [pc, #456]	; 344 <lv2_init+0x264>
 178:	e5850024 	str	r0, [r5, #36]	; 0x24
 17c:	e5943018 	ldr	r3, [r4, #24]
 180:	e5940014 	ldr	r0, [r4, #20]
 184:	e12fff33 	blx	r3
 188:	e59f11b8 	ldr	r1, [pc, #440]	; 348 <lv2_init+0x268>
 18c:	e5850028 	str	r0, [r5, #40]	; 0x28
 190:	e5943018 	ldr	r3, [r4, #24]
 194:	e5940014 	ldr	r0, [r4, #20]
 198:	e12fff33 	blx	r3
 19c:	e59f11a8 	ldr	r1, [pc, #424]	; 34c <lv2_init+0x26c>
 1a0:	e585002c 	str	r0, [r5, #44]	; 0x2c
 1a4:	e5943018 	ldr	r3, [r4, #24]
 1a8:	e5940014 	ldr	r0, [r4, #20]
 1ac:	e12fff33 	blx	r3
 1b0:	e59f1198 	ldr	r1, [pc, #408]	; 350 <lv2_init+0x270>
 1b4:	e5850030 	str	r0, [r5, #48]	; 0x30
 1b8:	e5943018 	ldr	r3, [r4, #24]
 1bc:	e5940014 	ldr	r0, [r4, #20]
 1c0:	e12fff33 	blx	r3
 1c4:	e59f1188 	ldr	r1, [pc, #392]	; 354 <lv2_init+0x274>
 1c8:	e5850034 	str	r0, [r5, #52]	; 0x34
 1cc:	e5943018 	ldr	r3, [r4, #24]
 1d0:	e5940014 	ldr	r0, [r4, #20]
 1d4:	e12fff33 	blx	r3
 1d8:	e59f1178 	ldr	r1, [pc, #376]	; 358 <lv2_init+0x278>
 1dc:	e5850038 	str	r0, [r5, #56]	; 0x38
 1e0:	e5943018 	ldr	r3, [r4, #24]
 1e4:	e5940014 	ldr	r0, [r4, #20]
 1e8:	e12fff33 	blx	r3
 1ec:	e59f1168 	ldr	r1, [pc, #360]	; 35c <lv2_init+0x27c>
 1f0:	e585003c 	str	r0, [r5, #60]	; 0x3c
 1f4:	e5943018 	ldr	r3, [r4, #24]
 1f8:	e5940014 	ldr	r0, [r4, #20]
 1fc:	e12fff33 	blx	r3
 200:	e59f1158 	ldr	r1, [pc, #344]	; 360 <lv2_init+0x280>
 204:	e5850040 	str	r0, [r5, #64]	; 0x40
 208:	e5943018 	ldr	r3, [r4, #24]
 20c:	e5940014 	ldr	r0, [r4, #20]
 210:	e12fff33 	blx	r3
 214:	e59f1148 	ldr	r1, [pc, #328]	; 364 <lv2_init+0x284>
 218:	e5850044 	str	r0, [r5, #68]	; 0x44
 21c:	e5943018 	ldr	r3, [r4, #24]
 220:	e5940014 	ldr	r0, [r4, #20]
 224:	e12fff33 	blx	r3
 228:	e59f1138 	ldr	r1, [pc, #312]	; 368 <lv2_init+0x288>
 22c:	e5850048 	str	r0, [r5, #72]	; 0x48
 230:	e5943018 	ldr	r3, [r4, #24]
 234:	e5940014 	ldr	r0, [r4, #20]
 238:	e12fff33 	blx	r3
 23c:	e59f1128 	ldr	r1, [pc, #296]	; 36c <lv2_init+0x28c>
 240:	e585004c 	str	r0, [r5, #76]	; 0x4c
 244:	e5943018 	ldr	r3, [r4, #24]
 248:	e5940014 	ldr	r0, [r4, #20]
 24c:	e12fff33 	blx	r3
 250:	e59f1118 	ldr	r1, [pc, #280]	; 370 <lv2_init+0x290>
 254:	e5850050 	str	r0, [r5, #80]	; 0x50
 258:	e5943018 	ldr	r3, [r4, #24]
 25c:	e5940014 	ldr	r0, [r4, #20]
 260:	e12fff33 	blx	r3
 264:	e59f1108 	ldr	r1, [pc, #264]	; 374 <lv2_init+0x294>
 268:	e5850054 	str	r0, [r5, #84]	; 0x54
 26c:	e5943018 	ldr	r3, [r4, #24]
 270:	e5940014 	ldr	r0, [r4, #20]
 274:	e12fff33 	blx	r3
 278:	e5943018 	ldr	r3, [r4, #24]
 27c:	e5850058 	str	r0, [r5, #88]	; 0x58
 280:	e59f10f0 	ldr	r1, [pc, #240]	; 378 <lv2_init+0x298>
 284:	e5940014 	ldr	r0, [r4, #20]
 288:	e12fff33 	blx	r3
 28c:	e594901c 	ldr	r9, [r4, #28]
 290:	e585005c 	str	r0, [r5, #92]	; 0x5c
 294:	e1590007 	cmp	r9, r7
 298:	01a08009 	moveq	r8, r9
 29c:	0a00001e 	beq	31c <lv2_init+0x23c>
 2a0:	e3a0000c 	mov	r0, #12
 2a4:	ebfffffe 	bl	0 <malloc>
 2a8:	e1a08007 	mov	r8, r7
 2ac:	e5807008 	str	r7, [r0, #8]
 2b0:	e1a09000 	mov	r9, r0
 2b4:	e2844018 	add	r4, r4, #24
 2b8:	e1a05000 	mov	r5, r0
 2bc:	e2867008 	add	r7, r6, #8
 2c0:	e1a0b008 	mov	fp, r8
 2c4:	e5b43004 	ldr	r3, [r4, #4]!
 2c8:	e3a00000 	mov	r0, #0
 2cc:	e58a3004 	str	r3, [sl, #4]
 2d0:	e12fff33 	blx	r3
 2d4:	edd67a00 	vldr	s15, [r6]
 2d8:	e5903004 	ldr	r3, [r0, #4]
 2dc:	e5850000 	str	r0, [r5]
 2e0:	eeb80b67 	vcvt.f64.u32	d0, s15
 2e4:	e3a01000 	mov	r1, #0
 2e8:	e1a02007 	mov	r2, r7
 2ec:	e12fff33 	blx	r3
 2f0:	e5850004 	str	r0, [r5, #4]
 2f4:	e5943004 	ldr	r3, [r4, #4]
 2f8:	e2888001 	add	r8, r8, #1
 2fc:	e3530000 	cmp	r3, #0
 300:	0a000005 	beq	31c <lv2_init+0x23c>
 304:	e3a0000c 	mov	r0, #12
 308:	ebfffffe 	bl	0 <malloc>
 30c:	e580b008 	str	fp, [r0, #8]
 310:	e5850008 	str	r0, [r5, #8]
 314:	e1a05000 	mov	r5, r0
 318:	eaffffe9 	b	2c4 <lv2_init+0x1e4>
 31c:	e5868004 	str	r8, [r6, #4]
 320:	e5869014 	str	r9, [r6, #20]
 324:	e1a00006 	mov	r0, r6
 328:	e8bd8ff8 	pop	{r3, r4, r5, r6, r7, r8, r9, sl, fp, pc}
	...
 338:	00000034 	andeq	r0, r0, r4, lsr r0
 33c:	00000058 	andeq	r0, r0, r8, asr r0
 340:	0000007c 	andeq	r0, r0, ip, ror r0
 344:	000000a0 	andeq	r0, r0, r0, lsr #1
 348:	000000c8 	andeq	r0, r0, r8, asr #1
 34c:	000000ec 	andeq	r0, r0, ip, ror #1
 350:	00000110 	andeq	r0, r0, r0, lsl r1
 354:	00000134 	andeq	r0, r0, r4, lsr r1
 358:	0000015c 	andeq	r0, r0, ip, asr r1
 35c:	00000180 	andeq	r0, r0, r0, lsl #3
 360:	000001a8 	andeq	r0, r0, r8, lsr #3
 364:	000001d0 	ldrdeq	r0, [r0], -r0	; <UNPREDICTABLE>
 368:	000001f8 	strdeq	r0, [r0], -r8
 36c:	00000220 	andeq	r0, r0, r0, lsr #4
 370:	00000244 	andeq	r0, r0, r4, asr #4
 374:	00000268 	andeq	r0, r0, r8, ror #4
 378:	0000028c 	andeq	r0, r0, ip, lsl #5

0000037c <new_lv2_port>:
 37c:	e92d4070 	push	{r4, r5, r6, lr}
 380:	e1a05000 	mov	r5, r0
 384:	e3a00010 	mov	r0, #16
 388:	e1a06001 	mov	r6, r1
 38c:	ebfffffe 	bl	0 <malloc>
 390:	e3550000 	cmp	r5, #0
 394:	e1a04000 	mov	r4, r0
 398:	e5c05000 	strb	r5, [r0]
 39c:	e5806004 	str	r6, [r0, #4]
 3a0:	0a000003 	beq	3b4 <new_lv2_port+0x38>
 3a4:	e3550001 	cmp	r5, #1
 3a8:	0a000008 	beq	3d0 <new_lv2_port+0x54>
 3ac:	e1a00004 	mov	r0, r4
 3b0:	e8bd8070 	pop	{r4, r5, r6, pc}
 3b4:	e3a00c01 	mov	r0, #256	; 0x100
 3b8:	ebfffffe 	bl	0 <malloc>
 3bc:	e3a03040 	mov	r3, #64	; 0x40
 3c0:	e5840008 	str	r0, [r4, #8]
 3c4:	e584300c 	str	r3, [r4, #12]
 3c8:	e1a00004 	mov	r0, r4
 3cc:	e8bd8070 	pop	{r4, r5, r6, pc}
 3d0:	e3a00c01 	mov	r0, #256	; 0x100
 3d4:	ebfffffe 	bl	0 <malloc>
 3d8:	e3a03c01 	mov	r3, #256	; 0x100
 3dc:	e5840008 	str	r0, [r4, #8]
 3e0:	e584300c 	str	r3, [r4, #12]
 3e4:	e1a00004 	mov	r0, r4
 3e8:	e8bd8070 	pop	{r4, r5, r6, pc}

Disassembly of section .text:

00000000 <reboot>:
   0:	e92d4038 	push	{r3, r4, r5, lr}
   4:	e59f402c 	ldr	r4, [pc, #44]	; 38 <reboot+0x38>
   8:	e1a00004 	mov	r0, r4
   c:	ebfffffe 	bl	0 <GET32>
  10:	e3c0045a 	bic	r0, r0, #1509949440	; 0x5a000000
  14:	e3c05030 	bic	r5, r0, #48	; 0x30
  18:	e59f101c 	ldr	r1, [pc, #28]	; 3c <reboot+0x3c>
  1c:	e59f001c 	ldr	r0, [pc, #28]	; 40 <reboot+0x40>
  20:	ebfffffe 	bl	0 <PUT32>
  24:	e385145a 	orr	r1, r5, #1509949440	; 0x5a000000
  28:	e1a00004 	mov	r0, r4
  2c:	e3811020 	orr	r1, r1, #32
  30:	e8bd4038 	pop	{r3, r4, r5, lr}
  34:	eafffffe 	b	0 <PUT32>
  38:	2010001c 	andscs	r0, r0, ip, lsl r0
  3c:	5a000001 	bpl	48 <reboot+0x48>
  40:	20100024 	andscs	r0, r0, r4, lsr #32

Disassembly of section .text:

00000000 <sinf>:
   0:	ed9f7b08 	vldr	d7, [pc, #32]	; 28 <sinf+0x28>
   4:	eeb70ac0 	vcvt.f64.f32	d0, s0
   8:	ee200b07 	vmul.f64	d0, d0, d7
   c:	eefc7bc0 	vcvt.u32.f64	s15, d0
  10:	ee173a90 	vmov	r3, s15
  14:	e59f2014 	ldr	r2, [pc, #20]	; 30 <sinf+0x30>
  18:	e6ef3073 	uxtb	r3, r3
  1c:	e0823103 	add	r3, r2, r3, lsl #2
  20:	ed930a00 	vldr	s0, [r3]
  24:	e12fff1e 	bx	lr
  28:	6e2dc32d 	cdpvs	3, 2, cr12, cr13, cr13, {1}
  2c:	40445f30 	submi	r5, r4, r0, lsr pc
  30:	00000000 	andeq	r0, r0, r0
  34:	e320f000 	nop	{0}
